; Function Attrs: mustprogress nofree norecurse nosync nounwind willreturn memory(read, argmem: readwrite, inaccessiblemem: none) uwtable
define void @_ZN6icu_7714MessagePattern9postParseEv(ptr noundef nonnull align 8 captures(none) dereferenceable(127) %0) local_unnamed_addr #7 align 2 {
  %2 = getelementptr inbounds nuw i8, ptr %0, i64 80
  %3 = load ptr, ptr %2, align 8, !tbaa !22
  %.not = icmp eq ptr %3, null
  br i1 %.not, label %7, label %4

4:                                                ; preds = %1
  %5 = load ptr, ptr %3, align 8, !tbaa !23
  %6 = getelementptr inbounds nuw i8, ptr %0, i64 88
  store ptr %5, ptr %6, align 8, !tbaa !26
  br label %7

7:                                                ; preds = %4, %1
  %8 = getelementptr inbounds nuw i8, ptr %0, i64 104
  %9 = load ptr, ptr %8, align 8, !tbaa !33
  %.not2 = icmp eq ptr %9, null
  br i1 %.not2, label %13, label %10

10:                                               ; preds = %7
  %11 = load ptr, ptr %9, align 8, !tbaa !34
  %12 = getelementptr inbounds nuw i8, ptr %0, i64 112
  store ptr %11, ptr %12, align 8, !tbaa !36
  br label %13

13:                                               ; preds = %10, %7
  ret void
}